target datalayout = "e-m:e-p270:32:32-p271:32:32-p272:64:64-i64:64-i128:128-f80:128-n8:16:32:64-S128"
target triple = "x86_64-unknown-linux-gnu"

%"struct.std::pair" = type { double, double }
%"class.QuantLib::InverseCumulativeNormal" = type { double, double }

@_ZN8QuantLib23InverseCumulativeNormal6x_low_E = external constant double, align 8
@_ZN8QuantLib23InverseCumulativeNormal7x_high_E = external constant double, align 8
@_ZN8QuantLib23InverseCumulativeNormal3a1_E = external constant double, align 8
@_ZN8QuantLib23InverseCumulativeNormal3a2_E = external constant double, align 8
@_ZN8QuantLib23InverseCumulativeNormal3a3_E = external constant double, align 8
@_ZN8QuantLib23InverseCumulativeNormal3a4_E = external constant double, align 8
@_ZN8QuantLib23InverseCumulativeNormal3a5_E = external constant double, align 8
@_ZN8QuantLib23InverseCumulativeNormal3a6_E = external constant double, align 8
@_ZN8QuantLib23InverseCumulativeNormal3b1_E = external constant double, align 8
@_ZN8QuantLib23InverseCumulativeNormal3b2_E = external constant double, align 8
@_ZN8QuantLib23InverseCumulativeNormal3b3_E = external constant double, align 8
@_ZN8QuantLib23InverseCumulativeNormal3b4_E = external constant double, align 8
@_ZN8QuantLib23InverseCumulativeNormal3b5_E = external constant double, align 8

; Function Attrs: mustprogress uwtable
define linkonce_odr noundef double @_ZN8QuantLib23InverseCumulativeNormal14standard_valueEd(double noundef %x) #5 comdat align 2 {
entry:
  %x.addr = alloca double, align 8
  %z = alloca double, align 8
  %r = alloca double, align 8
  store double %x, ptr %x.addr, align 8, !tbaa !12
  call void @llvm.lifetime.start.p0(i64 8, ptr %z) #16
  %0 = load double, ptr %x.addr, align 8, !tbaa !12
  %1 = load double, ptr @_ZN8QuantLib23InverseCumulativeNormal6x_low_E, align 8, !tbaa !12
  %cmp = fcmp olt double %0, %1
  br i1 %cmp, label %if.then, label %lor.lhs.false

lor.lhs.false:                                    ; preds = %entry
  %2 = load double, ptr @_ZN8QuantLib23InverseCumulativeNormal7x_high_E, align 8, !tbaa !12
  %3 = load double, ptr %x.addr, align 8, !tbaa !12
  %cmp1 = fcmp olt double %2, %3
  br i1 %cmp1, label %if.then, label %if.else

if.then:                                          ; preds = %lor.lhs.false, %entry
  %4 = load double, ptr %x.addr, align 8, !tbaa !12
  %call = call noundef double @_ZN8QuantLib23InverseCumulativeNormal10tail_valueEd(double noundef %4)
  store double %call, ptr %z, align 8, !tbaa !12
  br label %if.end

if.else:                                          ; preds = %lor.lhs.false
  %5 = load double, ptr %x.addr, align 8, !tbaa !12
  %sub = fsub double %5, 5.000000e-01
  store double %sub, ptr %z, align 8, !tbaa !12
  call void @llvm.lifetime.start.p0(i64 8, ptr %r) #16
  %6 = load double, ptr %z, align 8, !tbaa !12
  %7 = load double, ptr %z, align 8, !tbaa !12
  %mul = fmul double %6, %7
  store double %mul, ptr %r, align 8, !tbaa !12
  %8 = load double, ptr @_ZN8QuantLib23InverseCumulativeNormal3a1_E, align 8, !tbaa !12
  %9 = load double, ptr %r, align 8, !tbaa !12
  %10 = load double, ptr @_ZN8QuantLib23InverseCumulativeNormal3a2_E, align 8, !tbaa !12
  %11 = call double @llvm.fmuladd.f64(double %8, double %9, double %10)
  %12 = load double, ptr %r, align 8, !tbaa !12
  %13 = load double, ptr @_ZN8QuantLib23InverseCumulativeNormal3a3_E, align 8, !tbaa !12
  %14 = call double @llvm.fmuladd.f64(double %11, double %12, double %13)
  %15 = load double, ptr %r, align 8, !tbaa !12
  %16 = load double, ptr @_ZN8QuantLib23InverseCumulativeNormal3a4_E, align 8, !tbaa !12
  %17 = call double @llvm.fmuladd.f64(double %14, double %15, double %16)
  %18 = load double, ptr %r, align 8, !tbaa !12
  %19 = load double, ptr @_ZN8QuantLib23InverseCumulativeNormal3a5_E, align 8, !tbaa !12
  %20 = call double @llvm.fmuladd.f64(double %17, double %18, double %19)
  %21 = load double, ptr %r, align 8, !tbaa !12
  %22 = load double, ptr @_ZN8QuantLib23InverseCumulativeNormal3a6_E, align 8, !tbaa !12
  %23 = call double @llvm.fmuladd.f64(double %20, double %21, double %22)
  %24 = load double, ptr %z, align 8, !tbaa !12
  %mul7 = fmul double %23, %24
  %25 = load double, ptr @_ZN8QuantLib23InverseCumulativeNormal3b1_E, align 8, !tbaa !12
  %26 = load double, ptr %r, align 8, !tbaa !12
  %27 = load double, ptr @_ZN8QuantLib23InverseCumulativeNormal3b2_E, align 8, !tbaa !12
  %28 = call double @llvm.fmuladd.f64(double %25, double %26, double %27)
  %29 = load double, ptr %r, align 8, !tbaa !12
  %30 = load double, ptr @_ZN8QuantLib23InverseCumulativeNormal3b3_E, align 8, !tbaa !12
  %31 = call double @llvm.fmuladd.f64(double %28, double %29, double %30)
  %32 = load double, ptr %r, align 8, !tbaa !12
  %33 = load double, ptr @_ZN8QuantLib23InverseCumulativeNormal3b4_E, align 8, !tbaa !12
  %34 = call double @llvm.fmuladd.f64(double %31, double %32, double %33)
  %35 = load double, ptr %r, align 8, !tbaa !12
  %36 = load double, ptr @_ZN8QuantLib23InverseCumulativeNormal3b5_E, align 8, !tbaa !12
  %37 = call double @llvm.fmuladd.f64(double %34, double %35, double %36)
  %38 = load double, ptr %r, align 8, !tbaa !12
  %39 = call double @llvm.fmuladd.f64(double %37, double %38, double 1.000000e+00)
  %div = fdiv double %mul7, %39
  store double %div, ptr %z, align 8, !tbaa !12
  call void @llvm.lifetime.end.p0(i64 8, ptr %r) #16
  br label %if.end

if.end:                                           ; preds = %if.else, %if.then
  %40 = load double, ptr %z, align 8, !tbaa !12
  call void @llvm.lifetime.end.p0(i64 8, ptr %z) #16
  ret double %40
}

; Function Attrs: mustprogress uwtable
define linkonce_odr noundef double @_ZNK8QuantLib23InverseCumulativeNormalclEd(ptr noundef nonnull align 8 dereferenceable(16) %this, double noundef %x) #5 comdat align 2 {
entry:
  %this.addr = alloca ptr, align 8
  %x.addr = alloca double, align 8
  store ptr %this, ptr %this.addr, align 8, !tbaa !3
  store double %x, ptr %x.addr, align 8, !tbaa !12
  %this1 = load ptr, ptr %this.addr, align 8
  %average_ = getelementptr inbounds nuw %"class.QuantLib::InverseCumulativeNormal", ptr %this1, i32 0, i32 0
  %0 = load double, ptr %average_, align 8, !tbaa !37
  %sigma_ = getelementptr inbounds nuw %"class.QuantLib::InverseCumulativeNormal", ptr %this1, i32 0, i32 1
  %1 = load double, ptr %sigma_, align 8, !tbaa !39
  %2 = load double, ptr %x.addr, align 8, !tbaa !12
  %call = call noundef double @_ZN8QuantLib23InverseCumulativeNormal14standard_valueEd(double noundef %2)
  %3 = call double @llvm.fmuladd.f64(double %1, double %call, double %0)
  ret double %3
}

; Function Attrs: mustprogress uwtable
define noundef double @_ZNK8QuantLib16BSMRNDCalculator6invcdfEdd(ptr noundef nonnull align 8 dereferenceable(24) %this, double noundef %x, double noundef %t) unnamed_addr #5 align 2 {
entry:
  %this.addr = alloca ptr, align 8
  %x.addr = alloca double, align 8
  %t.addr = alloca double, align 8
  %p = alloca %"struct.std::pair", align 8
  %ref.tmp = alloca %"class.QuantLib::InverseCumulativeNormal", align 8
  store ptr %this, ptr %this.addr, align 8, !tbaa !3
  store double %x, ptr %x.addr, align 8, !tbaa !12
  store double %t, ptr %t.addr, align 8, !tbaa !12
  %this1 = load ptr, ptr %this.addr, align 8
  call void @llvm.lifetime.start.p0(i64 16, ptr %p) #16
  %0 = load double, ptr %x.addr, align 8, !tbaa !12
  %1 = load double, ptr %t.addr, align 8, !tbaa !12
  %call = call { double, double } @_ZNK8QuantLib16BSMRNDCalculator18distributionParamsEdd(ptr noundef nonnull align 8 dereferenceable(24) %this1, double noundef %0, double noundef %1)
  %2 = getelementptr inbounds nuw { double, double }, ptr %p, i32 0, i32 0
  %3 = extractvalue { double, double } %call, 0
  store double %3, ptr %2, align 8
  %4 = getelementptr inbounds nuw { double, double }, ptr %p, i32 0, i32 1
  %5 = extractvalue { double, double } %call, 1
  store double %5, ptr %4, align 8
  call void @llvm.lifetime.start.p0(i64 16, ptr %ref.tmp) #16
  %first = getelementptr inbounds nuw %"struct.std::pair", ptr %p, i32 0, i32 0
  %6 = load double, ptr %first, align 8, !tbaa !24
  %second = getelementptr inbounds nuw %"struct.std::pair", ptr %p, i32 0, i32 1
  %7 = load double, ptr %second, align 8, !tbaa !26
  call void @_ZN8QuantLib23InverseCumulativeNormalC2Edd(ptr noundef nonnull align 8 dereferenceable(16) %ref.tmp, double noundef %6, double noundef %7)
  %8 = load double, ptr %x.addr, align 8, !tbaa !12
  %call2 = call noundef double @_ZNK8QuantLib23InverseCumulativeNormalclEd(ptr noundef nonnull align 8 dereferenceable(16) %ref.tmp, double noundef %8)
  call void @llvm.lifetime.end.p0(i64 16, ptr %ref.tmp) #16
  call void @llvm.lifetime.end.p0(i64 16, ptr %p) #16
  ret double %call2
}