; Function Attrs: mustprogress uwtable
define noundef double @_ZNK8QuantLib16BSMRNDCalculator6invcdfEdd(ptr nocapture noundef nonnull readonly align 8 dereferenceable(24) %this, double noundef %x, double noundef %t) unnamed_addr #3 align 2 {
entry:
  %ref.tmp = alloca %"class.QuantLib::InverseCumulativeNormal", align 8
  %call = tail call { double, double } @_ZNK8QuantLib16BSMRNDCalculator18distributionParamsEdd(ptr noundef nonnull align 8 dereferenceable(24) %this, double noundef %x, double noundef %t)
  %0 = extractvalue { double, double } %call, 0
  %1 = extractvalue { double, double } %call, 1
  call void @llvm.lifetime.start.p0(i64 16, ptr nonnull %ref.tmp) #19
  call void @_ZN8QuantLib23InverseCumulativeNormalC2Edd(ptr noundef nonnull align 8 dereferenceable(16) %ref.tmp, double noundef %0, double noundef %1)
  %2 = load double, ptr %ref.tmp, align 8, !tbaa !42
  %sigma_.i = getelementptr inbounds nuw i8, ptr %ref.tmp, i64 8
  %3 = load double, ptr %sigma_.i, align 8, !tbaa !44
  %4 = load double, ptr @_ZN8QuantLib23InverseCumulativeNormal6x_low_E, align 8, !tbaa !45
  %cmp.i.i = fcmp olt double %x, %4
  %5 = load double, ptr @_ZN8QuantLib23InverseCumulativeNormal7x_high_E, align 8
  %cmp1.i.i = fcmp olt double %5, %x
  %or.cond.i.i = select i1 %cmp.i.i, i1 true, i1 %cmp1.i.i
  br i1 %or.cond.i.i, label %if.then.i.i, label %if.else.i.i

if.then.i.i:                                      ; preds = %entry
  %call.i.i = call noundef double @_ZN8QuantLib23InverseCumulativeNormal10tail_valueEd(double noundef %x)
  br label %_ZNK8QuantLib23InverseCumulativeNormalclEd.exit

if.else.i.i:                                      ; preds = %entry
  %sub.i.i = fadd double %x, -5.000000e-01
  %mul.i.i = fmul double %sub.i.i, %sub.i.i
  %6 = load double, ptr @_ZN8QuantLib23InverseCumulativeNormal3a1_E, align 8, !tbaa !45
  %7 = load double, ptr @_ZN8QuantLib23InverseCumulativeNormal3a2_E, align 8, !tbaa !45
  %8 = call double @llvm.fmuladd.f64(double %6, double %mul.i.i, double %7)
  %9 = load double, ptr @_ZN8QuantLib23InverseCumulativeNormal3a3_E, align 8, !tbaa !45
  %10 = call double @llvm.fmuladd.f64(double %8, double %mul.i.i, double %9)
  %11 = load double, ptr @_ZN8QuantLib23InverseCumulativeNormal3a4_E, align 8, !tbaa !45
  %12 = call double @llvm.fmuladd.f64(double %10, double %mul.i.i, double %11)
  %13 = load double, ptr @_ZN8QuantLib23InverseCumulativeNormal3a5_E, align 8, !tbaa !45
  %14 = call double @llvm.fmuladd.f64(double %12, double %mul.i.i, double %13)
  %15 = load double, ptr @_ZN8QuantLib23InverseCumulativeNormal3a6_E, align 8, !tbaa !45
  %16 = call double @llvm.fmuladd.f64(double %14, double %mul.i.i, double %15)
  %mul7.i.i = fmul double %sub.i.i, %16
  %17 = load double, ptr @_ZN8QuantLib23InverseCumulativeNormal3b1_E, align 8, !tbaa !45
  %18 = load double, ptr @_ZN8QuantLib23InverseCumulativeNormal3b2_E, align 8, !tbaa !45
  %19 = call double @llvm.fmuladd.f64(double %17, double %mul.i.i, double %18)
  %20 = load double, ptr @_ZN8QuantLib23InverseCumulativeNormal3b3_E, align 8, !tbaa !45
  %21 = call double @llvm.fmuladd.f64(double %19, double %mul.i.i, double %20)
  %22 = load double, ptr @_ZN8QuantLib23InverseCumulativeNormal3b4_E, align 8, !tbaa !45
  %23 = call double @llvm.fmuladd.f64(double %21, double %mul.i.i, double %22)
  %24 = load double, ptr @_ZN8QuantLib23InverseCumulativeNormal3b5_E, align 8, !tbaa !45
  %25 = call double @llvm.fmuladd.f64(double %23, double %mul.i.i, double %24)
  %26 = call double @llvm.fmuladd.f64(double %25, double %mul.i.i, double 1.000000e+00)
  %div.i.i = fdiv double %mul7.i.i, %26
  br label %_ZNK8QuantLib23InverseCumulativeNormalclEd.exit

_ZNK8QuantLib23InverseCumulativeNormalclEd.exit:  ; preds = %if.then.i.i, %if.else.i.i
  %z.0.i.i = phi double [ %call.i.i, %if.then.i.i ], [ %div.i.i, %if.else.i.i ]
  %27 = call noundef double @llvm.fmuladd.f64(double %3, double %z.0.i.i, double %2)
  call void @llvm.lifetime.end.p0(i64 16, ptr nonnull %ref.tmp) #19
  ret double %27
}